; Function Attrs: mustprogress nounwind uwtable
define hidden noundef zeroext i1 @_ZN4cvc56parser9Smt2State15isAbstractValueERKNSt7__cxx1112basic_stringIcSt11char_traitsIcESaIcEEE(ptr nocapture noundef nonnull readnone align 8 dereferenceable(512) %this, ptr noundef nonnull align 8 dereferenceable(32) %name) local_unnamed_addr #4 align 2 {
entry:
  %call = tail call noundef i64 @_ZNKSt7__cxx1112basic_stringIcSt11char_traitsIcESaIcEE6lengthEv(ptr noundef nonnull align 8 dereferenceable(32) %name) #19
  %cmp = icmp ugt i64 %call, 1
  br i1 %cmp, label %land.lhs.true, label %land.end

land.lhs.true:                                    ; preds = %entry
  %call2 = tail call noundef nonnull align 1 dereferenceable(1) ptr @_ZNKSt7__cxx1112basic_stringIcSt11char_traitsIcESaIcEEixEm(ptr noundef nonnull align 8 dereferenceable(32) %name, i64 noundef 0) #19
  %0 = load i8, ptr %call2, align 1
  %cmp3 = icmp eq i8 %0, 64
  br i1 %cmp3, label %land.lhs.true4, label %land.end

land.lhs.true4:                                   ; preds = %land.lhs.true
  %call5 = tail call noundef nonnull align 1 dereferenceable(1) ptr @_ZNKSt7__cxx1112basic_stringIcSt11char_traitsIcESaIcEEixEm(ptr noundef nonnull align 8 dereferenceable(32) %name, i64 noundef 1) #19
  %1 = load i8, ptr %call5, align 1
  %cmp7.not = icmp eq i8 %1, 48
  br i1 %cmp7.not, label %land.end, label %land.rhs

land.rhs:                                         ; preds = %land.lhs.true4
  %call8 = tail call noundef i64 @_ZNKSt7__cxx1112basic_stringIcSt11char_traitsIcESaIcEE17find_first_not_ofEPKcm(ptr noundef nonnull align 8 dereferenceable(32) %name, ptr noundef nonnull @.str.347, i64 noundef 1) #19
  %cmp9 = icmp eq i64 %call8, -1
  br label %land.end

land.end:                                         ; preds = %land.rhs, %land.lhs.true4, %land.lhs.true, %entry
  %2 = phi i1 [ false, %land.lhs.true4 ], [ false, %land.lhs.true ], [ false, %entry ], [ %cmp9, %land.rhs ]
  ret i1 %2
}